target datalayout = "e-m:e-p270:32:32-p271:32:32-p272:64:64-i64:64-i128:128-f80:128-n8:16:32:64-S128"
target triple = "x86_64-pc-linux-gnu"

%"struct.vcpkg::msg::MessageT" = type { i64 }
%"struct.vcpkg::Json::Value" = type { %"class.std::unique_ptr" }
%"class.std::unique_ptr" = type { %"struct.std::__uniq_ptr_data" }
%"struct.std::__uniq_ptr_data" = type { %"class.std::__uniq_ptr_impl" }
%"class.std::__uniq_ptr_impl" = type { %"class.std::tuple" }
%"class.std::tuple" = type { %"struct.std::_Tuple_impl" }
%"struct.std::_Tuple_impl" = type { %"struct.std::_Head_base.1" }
%"struct.std::_Head_base.1" = type { ptr }
%"struct.vcpkg::Json::impl::ValueImpl" = type { i32, %union.anon }
%union.anon = type { %"class.std::__cxx11::basic_string" }
%"class.std::__cxx11::basic_string" = type { %"struct.std::__cxx11::basic_string<char>::_Alloc_hider", i64, %union.anon.2 }
%"struct.std::__cxx11::basic_string<char>::_Alloc_hider" = type { ptr }
%union.anon.2 = type { i64, [8 x i8] }
%"struct.vcpkg::LineInfo" = type { i32, ptr }
%"struct.vcpkg::LocalizedString" = type { %"class.std::__cxx11::basic_string" }

@_ZN5vcpkg20msgJsonValueNotArrayE = external global %"struct.vcpkg::msg::MessageT", align 8

; Function Attrs: mustprogress nounwind uwtable
define linkonce_odr dso_local noundef nonnull align 8 dereferenceable(8) ptr @_ZNSt10_Head_baseILm0EPN5vcpkg4Json4impl9ValueImplELb0EE7_M_headERKS5_(ptr noundef nonnull align 8 dereferenceable(8) %0) #0 comdat align 2 {
  %2 = alloca ptr, align 8
  store ptr %0, ptr %2, align 8
  %3 = load ptr, ptr %2, align 8
  %4 = getelementptr inbounds %"struct.std::_Head_base.1", ptr %3, i32 0, i32 0
  ret ptr %4
}

; Function Attrs: mustprogress nounwind uwtable
define linkonce_odr dso_local noundef nonnull align 8 dereferenceable(8) ptr @_ZNSt11_Tuple_implILm0EJPN5vcpkg4Json4impl9ValueImplESt14default_deleteIS3_EEE7_M_headERKS7_(ptr noundef nonnull align 8 dereferenceable(8) %0) #0 comdat align 2 {
  %2 = alloca ptr, align 8
  store ptr %0, ptr %2, align 8
  %3 = load ptr, ptr %2, align 8
  %4 = call noundef nonnull align 8 dereferenceable(8) ptr @_ZNSt10_Head_baseILm0EPN5vcpkg4Json4impl9ValueImplELb0EE7_M_headERKS5_(ptr noundef nonnull align 8 dereferenceable(8) %3) #9
  ret ptr %4
}

; Function Attrs: mustprogress nounwind uwtable
define linkonce_odr dso_local noundef nonnull align 8 dereferenceable(8) ptr @_ZSt12__get_helperILm0EPN5vcpkg4Json4impl9ValueImplEJSt14default_deleteIS3_EEERKT0_RKSt11_Tuple_implIXT_EJS7_DpT1_EE(ptr noundef nonnull align 8 dereferenceable(8) %0) #0 comdat {
  %2 = alloca ptr, align 8
  store ptr %0, ptr %2, align 8
  %3 = load ptr, ptr %2, align 8
  %4 = call noundef nonnull align 8 dereferenceable(8) ptr @_ZNSt11_Tuple_implILm0EJPN5vcpkg4Json4impl9ValueImplESt14default_deleteIS3_EEE7_M_headERKS7_(ptr noundef nonnull align 8 dereferenceable(8) %3) #9
  ret ptr %4
}

; Function Attrs: mustprogress nounwind uwtable
define linkonce_odr dso_local noundef nonnull align 8 dereferenceable(8) ptr @_ZSt3getILm0EJPN5vcpkg4Json4impl9ValueImplESt14default_deleteIS3_EEERKNSt13tuple_elementIXT_ESt5tupleIJDpT0_EEE4typeERKSB_(ptr noundef nonnull align 8 dereferenceable(8) %0) #0 comdat {
  %2 = alloca ptr, align 8
  store ptr %0, ptr %2, align 8
  %3 = load ptr, ptr %2, align 8
  %4 = call noundef nonnull align 8 dereferenceable(8) ptr @_ZSt12__get_helperILm0EPN5vcpkg4Json4impl9ValueImplEJSt14default_deleteIS3_EEERKT0_RKSt11_Tuple_implIXT_EJS7_DpT1_EE(ptr noundef nonnull align 8 dereferenceable(8) %3) #9
  ret ptr %4
}

; Function Attrs: mustprogress nounwind uwtable
define linkonce_odr dso_local noundef ptr @_ZNKSt15__uniq_ptr_implIN5vcpkg4Json4impl9ValueImplESt14default_deleteIS3_EE6_M_ptrEv(ptr noundef nonnull align 8 dereferenceable(8) %0) #0 comdat align 2 {
  %2 = alloca ptr, align 8
  store ptr %0, ptr %2, align 8
  %3 = load ptr, ptr %2, align 8
  %4 = getelementptr inbounds %"class.std::__uniq_ptr_impl", ptr %3, i32 0, i32 0
  %5 = call noundef nonnull align 8 dereferenceable(8) ptr @_ZSt3getILm0EJPN5vcpkg4Json4impl9ValueImplESt14default_deleteIS3_EEERKNSt13tuple_elementIXT_ESt5tupleIJDpT0_EEE4typeERKSB_(ptr noundef nonnull align 8 dereferenceable(8) %4) #9
  %6 = load ptr, ptr %5, align 8
  ret ptr %6
}

; Function Attrs: mustprogress nounwind uwtable
define linkonce_odr dso_local noundef zeroext i1 @_ZNKSt10unique_ptrIN5vcpkg4Json4impl9ValueImplESt14default_deleteIS3_EEcvbEv(ptr noundef nonnull align 8 dereferenceable(8) %0) #0 comdat align 2 {
  %2 = alloca ptr, align 8
  store ptr %0, ptr %2, align 8
  %3 = load ptr, ptr %2, align 8
  %4 = call noundef ptr @_ZNKSt10unique_ptrIN5vcpkg4Json4impl9ValueImplESt14default_deleteIS3_EE3getEv(ptr noundef nonnull align 8 dereferenceable(8) %3) #9
  %5 = icmp eq ptr %4, null
  %6 = select i1 %5, i1 false, i1 true
  ret i1 %6
}

; Function Attrs: mustprogress nounwind uwtable
define linkonce_odr dso_local noundef ptr @_ZNKSt10unique_ptrIN5vcpkg4Json4impl9ValueImplESt14default_deleteIS3_EE3getEv(ptr noundef nonnull align 8 dereferenceable(8) %0) #0 comdat align 2 {
  %2 = alloca ptr, align 8
  store ptr %0, ptr %2, align 8
  %3 = load ptr, ptr %2, align 8
  %4 = getelementptr inbounds %"class.std::unique_ptr", ptr %3, i32 0, i32 0
  %5 = call noundef ptr @_ZNKSt15__uniq_ptr_implIN5vcpkg4Json4impl9ValueImplESt14default_deleteIS3_EE6_M_ptrEv(ptr noundef nonnull align 8 dereferenceable(8) %4) #9
  ret ptr %5
}

; Function Attrs: mustprogress nounwind uwtable
define linkonce_odr dso_local void @_ZN5vcpkg15LocalizedStringD2Ev(ptr noundef nonnull align 8 dereferenceable(32) %0) unnamed_addr #0 comdat align 2 {
  %2 = alloca ptr, align 8
  store ptr %0, ptr %2, align 8
  %3 = load ptr, ptr %2, align 8
  %4 = getelementptr inbounds %"struct.vcpkg::LocalizedString", ptr %3, i32 0, i32 0
  call void @_ZNSt7__cxx1112basic_stringIcSt11char_traitsIcESaIcEED1Ev(ptr noundef nonnull align 8 dereferenceable(32) %4) #9
  ret void
}

; Function Attrs: mustprogress nounwind uwtable
define dso_local noundef i32 @_ZNK5vcpkg4Json5Value4kindEv(ptr noundef nonnull align 8 dereferenceable(8) %0) #0 align 2 {
  %2 = alloca i32, align 4
  %3 = alloca ptr, align 8
  store ptr %0, ptr %3, align 8
  %4 = load ptr, ptr %3, align 8
  %5 = getelementptr inbounds %"struct.vcpkg::Json::Value", ptr %4, i32 0, i32 0
  %6 = call noundef zeroext i1 @_ZNKSt10unique_ptrIN5vcpkg4Json4impl9ValueImplESt14default_deleteIS3_EEcvbEv(ptr noundef nonnull align 8 dereferenceable(8) %5) #9
  br i1 %6, label %7, label %12

7:                                                ; preds = %1
  %8 = getelementptr inbounds %"struct.vcpkg::Json::Value", ptr %4, i32 0, i32 0
  %9 = call noundef ptr @_ZNKSt10unique_ptrIN5vcpkg4Json4impl9ValueImplESt14default_deleteIS3_EEptEv(ptr noundef nonnull align 8 dereferenceable(8) %8) #9
  %10 = getelementptr inbounds %"struct.vcpkg::Json::impl::ValueImpl", ptr %9, i32 0, i32 0
  %11 = load i32, ptr %10, align 8
  store i32 %11, ptr %2, align 4
  br label %13

12:                                               ; preds = %1
  store i32 0, ptr %2, align 4
  br label %13

13:                                               ; preds = %12, %7
  %14 = load i32, ptr %2, align 4
  ret i32 %14
}

; Function Attrs: mustprogress nounwind uwtable
define linkonce_odr dso_local noundef ptr @_ZNKSt10unique_ptrIN5vcpkg4Json4impl9ValueImplESt14default_deleteIS3_EEptEv(ptr noundef nonnull align 8 dereferenceable(8) %0) #0 comdat align 2 {
  %2 = alloca ptr, align 8
  store ptr %0, ptr %2, align 8
  %3 = load ptr, ptr %2, align 8
  %4 = call noundef ptr @_ZNKSt10unique_ptrIN5vcpkg4Json4impl9ValueImplESt14default_deleteIS3_EE3getEv(ptr noundef nonnull align 8 dereferenceable(8) %3) #9
  ret ptr %4
}

; Function Attrs: mustprogress uwtable
define linkonce_odr dso_local void @_ZN5vcpkg6Checks14msg_check_exitIJEJEEEvRKNS_8LineInfoEbNS_3msg8MessageTIJDpT_EEEDpNS5_6TagArgINS_8identityIS7_E4typeET0_EE(ptr noundef nonnull align 8 dereferenceable(16) %0, i1 noundef zeroext %1, i64 %2) #4 comdat personality ptr @__gxx_personality_v0 {
  %4 = alloca %"struct.vcpkg::msg::MessageT", align 8
  %5 = alloca ptr, align 8
  %6 = alloca i8, align 1
  %7 = alloca %"struct.vcpkg::LocalizedString", align 8
  %8 = alloca %"struct.vcpkg::msg::MessageT", align 8
  %9 = alloca ptr, align 8
  %10 = alloca i32, align 4
  %11 = getelementptr inbounds %"struct.vcpkg::msg::MessageT", ptr %4, i32 0, i32 0
  store i64 %2, ptr %11, align 8
  store ptr %0, ptr %5, align 8
  %12 = zext i1 %1 to i8
  store i8 %12, ptr %6, align 1
  %13 = load i8, ptr %6, align 1
  %14 = trunc i8 %13 to i1
  br i1 %14, label %24, label %15

15:                                               ; preds = %3
  %16 = load ptr, ptr %5, align 8
  call void @llvm.memcpy.p0.p0.i64(ptr align 8 %8, ptr align 8 %4, i64 8, i1 false)
  %17 = getelementptr inbounds %"struct.vcpkg::msg::MessageT", ptr %8, i32 0, i32 0
  %18 = load i64, ptr %17, align 8
  call void @_ZN5vcpkg3msg6formatIJEJEEENS_15LocalizedStringENS0_8MessageTIJDpT_EEEDpNS0_6TagArgINS_8identityIS4_E4typeET0_EE(ptr dead_on_unwind writable sret(%"struct.vcpkg::LocalizedString") align 8 %7, i64 %18)
  invoke void @_ZN5vcpkg6Checks21msg_exit_with_messageERKNS_8LineInfoERKNS_15LocalizedStringE(ptr noundef nonnull align 8 dereferenceable(16) %16, ptr noundef nonnull align 8 dereferenceable(32) %7) #20
          to label %19 unwind label %20

19:                                               ; preds = %15
  unreachable

20:                                               ; preds = %15
  %21 = landingpad { ptr, i32 }
          cleanup
  %22 = extractvalue { ptr, i32 } %21, 0
  store ptr %22, ptr %9, align 8
  %23 = extractvalue { ptr, i32 } %21, 1
  store i32 %23, ptr %10, align 4
  call void @_ZN5vcpkg15LocalizedStringD2Ev(ptr noundef nonnull align 8 dereferenceable(32) %7) #9
  br label %25

24:                                               ; preds = %3
  ret void

25:                                               ; preds = %20
  %26 = load ptr, ptr %9, align 8
  %27 = load i32, ptr %10, align 4
  %28 = insertvalue { ptr, i32 } poison, ptr %26, 0
  %29 = insertvalue { ptr, i32 } %28, i32 %27, 1
  resume { ptr, i32 } %29
}

; Function Attrs: mustprogress nounwind uwtable
define dso_local noundef zeroext i1 @_ZNK5vcpkg4Json5Value8is_arrayEv(ptr noundef nonnull align 8 dereferenceable(8) %0) #0 align 2 {
  %2 = alloca ptr, align 8
  store ptr %0, ptr %2, align 8
  %3 = load ptr, ptr %2, align 8
  %4 = call noundef i32 @_ZNK5vcpkg4Json5Value4kindEv(ptr noundef nonnull align 8 dereferenceable(8) %3) #9
  %5 = icmp eq i32 %4, 5
  ret i1 %5
}

; Function Attrs: mustprogress nounwind uwtable
define dso_local noundef nonnull align 8 dereferenceable(24) ptr @_ZNR5vcpkg4Json5Value5arrayENS_8LineInfoE(ptr noundef nonnull align 8 dereferenceable(8) %0, i32 %1, ptr %2) #0 align 2 personality ptr @__gxx_personality_v0 {
  %4 = alloca %"struct.vcpkg::LineInfo", align 8
  %5 = alloca ptr, align 8
  %6 = alloca %"struct.vcpkg::msg::MessageT", align 8
  %7 = getelementptr inbounds { i32, ptr }, ptr %4, i32 0, i32 0
  store i32 %1, ptr %7, align 8
  %8 = getelementptr inbounds { i32, ptr }, ptr %4, i32 0, i32 1
  store ptr %2, ptr %8, align 8
  store ptr %0, ptr %5, align 8
  %9 = load ptr, ptr %5, align 8
  %10 = call noundef zeroext i1 @_ZNK5vcpkg4Json5Value8is_arrayEv(ptr noundef nonnull align 8 dereferenceable(8) %9) #9
  call void @llvm.memcpy.p0.p0.i64(ptr align 8 %6, ptr align 8 @_ZN5vcpkg20msgJsonValueNotArrayE, i64 8, i1 false)
  %11 = getelementptr inbounds %"struct.vcpkg::msg::MessageT", ptr %6, i32 0, i32 0
  %12 = load i64, ptr %11, align 8
  invoke void @_ZN5vcpkg6Checks14msg_check_exitIJEJEEEvRKNS_8LineInfoEbNS_3msg8MessageTIJDpT_EEEDpNS5_6TagArgINS_8identityIS7_E4typeET0_EE(ptr noundef nonnull align 8 dereferenceable(16) %4, i1 noundef zeroext %10, i64 %12)
          to label %13 unwind label %17

13:                                               ; preds = %3
  %14 = getelementptr inbounds %"struct.vcpkg::Json::Value", ptr %9, i32 0, i32 0
  %15 = call noundef ptr @_ZNKSt10unique_ptrIN5vcpkg4Json4impl9ValueImplESt14default_deleteIS3_EEptEv(ptr noundef nonnull align 8 dereferenceable(8) %14) #9
  %16 = getelementptr inbounds %"struct.vcpkg::Json::impl::ValueImpl", ptr %15, i32 0, i32 1
  ret ptr %16

17:                                               ; preds = %3
  %18 = landingpad { ptr, i32 }
          catch ptr null
  %19 = extractvalue { ptr, i32 } %18, 0
  call void @__clang_call_terminate(ptr %19) #19
  unreachable
}